target datalayout = "e-m:e-p270:32:32-p271:32:32-p272:64:64-i64:64-i128:128-f80:128-n8:16:32:64-S128"
target triple = "x86_64-pc-linux-gnu"

%struct.CvPoint = type { i32, i32 }
%"class.std::__cxx11::basic_string" = type { %"struct.std::__cxx11::basic_string<char>::_Alloc_hider", i64, %union.anon }
%"struct.std::__cxx11::basic_string<char>::_Alloc_hider" = type { ptr }
%union.anon = type { i64, [8 x i8] }
%"class.std::allocator" = type { i8 }
%struct.CvSize = type { i32, i32 }
%struct.CvRect = type { i32, i32, i32, i32 }
%struct._CvContourScanner = type { ptr, ptr, ptr, ptr, %struct.CvMemStoragePos, %struct.CvMemStoragePos, %struct.CvMemStoragePos, ptr, ptr, i32, %struct.CvSize, %struct.CvPoint, %struct.CvPoint, %struct.CvPoint, i32, ptr, %struct._CvContourInfo, %struct._CvContourInfo, %struct.CvSeq, i32, i32, i32, i32, i32, i32, i32, i32, i32, i32, [128 x ptr] }
%struct.CvMemStoragePos = type { ptr, i32 }
%struct._CvContourInfo = type { i32, ptr, ptr, ptr, %struct.CvRect, %struct.CvPoint, i32 }
%struct.CvSeq = type { i32, i32, ptr, ptr, ptr, ptr, i32, i32, ptr, ptr, i32, ptr, ptr, ptr }

@.str = private unnamed_addr constant [1 x i8] zeroinitializer, align 1
@.str.1 = private unnamed_addr constant [124 x i8] c"generated/home/dtcxzyw/WorkSpace/Projects/compilers/llvm-opt-benchmark/bench/opencv/opencv/modules/imgproc/src/contours.cpp\00", align 1
@__func__.cvEndFindContours = private unnamed_addr constant [18 x i8] c"cvEndFindContours\00", align 1

; Function Attrs: mustprogress nounwind uwtable
define linkonce_odr hidden void @_ZNSt15__new_allocatorIcE10deallocateEPcm(ptr noundef nonnull align 1 dereferenceable(1) %0, ptr noundef %1, i64 noundef %2) #3 comdat align 2 {
  %4 = alloca ptr, align 8
  %5 = alloca ptr, align 8
  %6 = alloca i64, align 8
  store ptr %0, ptr %4, align 8, !tbaa !312
  store ptr %1, ptr %5, align 8, !tbaa !30
  store i64 %2, ptr %6, align 8, !tbaa !193
  %7 = load ptr, ptr %5, align 8, !tbaa !30
  call void @_ZdlPv(ptr noundef %7) #22
  ret void
}

; Function Attrs: mustprogress nounwind uwtable
define linkonce_odr hidden noundef ptr @_ZNSt19__ptr_traits_ptr_toIPKcS0_Lb0EE10pointer_toERS0_(ptr noundef nonnull align 1 dereferenceable(1) %0) #3 comdat align 2 {
  %2 = alloca ptr, align 8
  store ptr %0, ptr %2, align 8, !tbaa !30
  %3 = load ptr, ptr %2, align 8, !tbaa !30
  ret ptr %3
}

; Function Attrs: mustprogress uwtable
define linkonce_odr hidden void @_ZNSt16allocator_traitsISaIcEE10deallocateERS0_Pcm(ptr noundef nonnull align 1 dereferenceable(1) %0, ptr noundef %1, i64 noundef %2) #0 comdat align 2 {
  %4 = alloca ptr, align 8
  %5 = alloca ptr, align 8
  %6 = alloca i64, align 8
  store ptr %0, ptr %4, align 8, !tbaa !26
  store ptr %1, ptr %5, align 8, !tbaa !30
  store i64 %2, ptr %6, align 8, !tbaa !193
  %7 = load ptr, ptr %4, align 8, !tbaa !26
  %8 = load ptr, ptr %5, align 8, !tbaa !30
  %9 = load i64, ptr %6, align 8, !tbaa !193
  call void @_ZNSt15__new_allocatorIcE10deallocateEPcm(ptr noundef nonnull align 1 dereferenceable(1) %7, ptr noundef %8, i64 noundef %9)
  ret void
}

; Function Attrs: mustprogress nounwind uwtable
define available_externally noundef nonnull align 1 dereferenceable(1) ptr @_ZNSt7__cxx1112basic_stringIcSt11char_traitsIcESaIcEE16_M_get_allocatorEv(ptr noundef nonnull align 8 dereferenceable(32) %0) #3 align 2 {
  %2 = alloca ptr, align 8
  store ptr %0, ptr %2, align 8, !tbaa !28
  %3 = load ptr, ptr %2, align 8
  %4 = getelementptr inbounds nuw %"class.std::__cxx11::basic_string", ptr %3, i32 0, i32 0
  ret ptr %4
}

; Function Attrs: mustprogress nounwind uwtable
define available_externally noundef ptr @_ZNKSt7__cxx1112basic_stringIcSt11char_traitsIcESaIcEE13_M_local_dataEv(ptr noundef nonnull align 8 dereferenceable(32) %0) #3 align 2 {
  %2 = alloca ptr, align 8
  store ptr %0, ptr %2, align 8, !tbaa !28
  %3 = load ptr, ptr %2, align 8
  %4 = getelementptr inbounds nuw %"class.std::__cxx11::basic_string", ptr %3, i32 0, i32 2
  %5 = getelementptr inbounds [16 x i8], ptr %4, i64 0, i64 0
  %6 = call noundef ptr @_ZNSt19__ptr_traits_ptr_toIPKcS0_Lb0EE10pointer_toERS0_(ptr noundef nonnull align 1 dereferenceable(1) %5) #18
  ret ptr %6
}

; Function Attrs: mustprogress nounwind uwtable
define available_externally noundef ptr @_ZNKSt7__cxx1112basic_stringIcSt11char_traitsIcESaIcEE7_M_dataEv(ptr noundef nonnull align 8 dereferenceable(32) %0) #3 align 2 {
  %2 = alloca ptr, align 8
  store ptr %0, ptr %2, align 8, !tbaa !28
  %3 = load ptr, ptr %2, align 8
  %4 = getelementptr inbounds nuw %"class.std::__cxx11::basic_string", ptr %3, i32 0, i32 0
  %5 = getelementptr inbounds nuw %"struct.std::__cxx11::basic_string<char>::_Alloc_hider", ptr %4, i32 0, i32 0
  %6 = load ptr, ptr %5, align 8, !tbaa !317
  ret ptr %6
}

; Function Attrs: mustprogress nounwind uwtable
define available_externally void @_ZNSt7__cxx1112basic_stringIcSt11char_traitsIcESaIcEE10_M_destroyEm(ptr noundef nonnull align 8 dereferenceable(32) %0, i64 noundef %1) #3 align 2 personality ptr @__gxx_personality_v0 {
  %3 = alloca ptr, align 8
  %4 = alloca i64, align 8
  %5 = alloca ptr, align 8
  %6 = alloca i32, align 4
  store ptr %0, ptr %3, align 8, !tbaa !28
  store i64 %1, ptr %4, align 8, !tbaa !193
  %7 = load ptr, ptr %3, align 8
  %8 = invoke noundef nonnull align 1 dereferenceable(1) ptr @_ZNSt7__cxx1112basic_stringIcSt11char_traitsIcESaIcEE16_M_get_allocatorEv(ptr noundef nonnull align 8 dereferenceable(32) %7)
          to label %9 unwind label %14

9:                                                ; preds = %2
  %10 = call noundef ptr @_ZNKSt7__cxx1112basic_stringIcSt11char_traitsIcESaIcEE7_M_dataEv(ptr noundef nonnull align 8 dereferenceable(32) %7)
  %11 = load i64, ptr %4, align 8, !tbaa !193
  %12 = add i64 %11, 1
  invoke void @_ZNSt16allocator_traitsISaIcEE10deallocateERS0_Pcm(ptr noundef nonnull align 1 dereferenceable(1) %8, ptr noundef %10, i64 noundef %12)
          to label %13 unwind label %14

13:                                               ; preds = %9
  ret void

14:                                               ; preds = %9, %2
  %15 = landingpad { ptr, i32 }
          filter [0 x ptr] zeroinitializer
  %16 = extractvalue { ptr, i32 } %15, 0
  store ptr %16, ptr %5, align 8
  %17 = extractvalue { ptr, i32 } %15, 1
  store i32 %17, ptr %6, align 4
  br label %18

18:                                               ; preds = %14
  %19 = load ptr, ptr %5, align 8
  call void @__cxa_call_unexpected(ptr %19) #19
  unreachable
}

; Function Attrs: mustprogress uwtable
define available_externally noundef zeroext i1 @_ZNKSt7__cxx1112basic_stringIcSt11char_traitsIcESaIcEE11_M_is_localEv(ptr noundef nonnull align 8 dereferenceable(32) %0) #0 align 2 {
  %2 = alloca i1, align 1
  %3 = alloca ptr, align 8
  store ptr %0, ptr %3, align 8, !tbaa !28
  %4 = load ptr, ptr %3, align 8
  %5 = call noundef ptr @_ZNKSt7__cxx1112basic_stringIcSt11char_traitsIcESaIcEE7_M_dataEv(ptr noundef nonnull align 8 dereferenceable(32) %4)
  %6 = call noundef ptr @_ZNKSt7__cxx1112basic_stringIcSt11char_traitsIcESaIcEE13_M_local_dataEv(ptr noundef nonnull align 8 dereferenceable(32) %4)
  %7 = icmp eq ptr %5, %6
  br i1 %7, label %8, label %14

8:                                                ; preds = %1
  %9 = getelementptr inbounds nuw %"class.std::__cxx11::basic_string", ptr %4, i32 0, i32 1
  %10 = load i64, ptr %9, align 8, !tbaa !314
  %11 = icmp ugt i64 %10, 15
  br i1 %11, label %12, label %13

12:                                               ; preds = %8
  unreachable

13:                                               ; preds = %8
  store i1 true, ptr %2, align 1
  br label %15

14:                                               ; preds = %1
  store i1 false, ptr %2, align 1
  br label %15

15:                                               ; preds = %14, %13
  %16 = load i1, ptr %2, align 1
  ret i1 %16
}

; Function Attrs: noinline noreturn nounwind uwtable
define linkonce_odr hidden void @__clang_call_terminate(ptr noundef %0) #10 comdat {
  %2 = call ptr @__cxa_begin_catch(ptr %0) #18
  call void @_ZSt9terminatev() #20
  unreachable
}

; Function Attrs: mustprogress uwtable
define available_externally void @_ZNSt7__cxx1112basic_stringIcSt11char_traitsIcESaIcEE10_M_disposeEv(ptr noundef nonnull align 8 dereferenceable(32) %0) #0 align 2 {
  %2 = alloca ptr, align 8
  store ptr %0, ptr %2, align 8, !tbaa !28
  %3 = load ptr, ptr %2, align 8
  %4 = call noundef zeroext i1 @_ZNKSt7__cxx1112basic_stringIcSt11char_traitsIcESaIcEE11_M_is_localEv(ptr noundef nonnull align 8 dereferenceable(32) %3)
  br i1 %4, label %8, label %5

5:                                                ; preds = %1
  %6 = getelementptr inbounds nuw %"class.std::__cxx11::basic_string", ptr %3, i32 0, i32 2
  %7 = load i64, ptr %6, align 8, !tbaa !22
  call void @_ZNSt7__cxx1112basic_stringIcSt11char_traitsIcESaIcEE10_M_destroyEm(ptr noundef nonnull align 8 dereferenceable(32) %3, i64 noundef %7) #18
  br label %8

8:                                                ; preds = %5, %1
  ret void
}

; Function Attrs: mustprogress nounwind uwtable
define linkonce_odr hidden void @_ZNSt15__new_allocatorIcEC2Ev(ptr noundef nonnull align 1 dereferenceable(1) %0) unnamed_addr #3 comdat align 2 {
  %2 = alloca ptr, align 8
  store ptr %0, ptr %2, align 8, !tbaa !312
  ret void
}

; Function Attrs: mustprogress uwtable
define internal void @_ZL20icvEndProcessContourP17_CvContourScanner(ptr noundef %0) #0 {
  %2 = alloca ptr, align 8
  %3 = alloca ptr, align 8
  %4 = alloca %struct.CvMemStoragePos, align 8
  store ptr %0, ptr %2, align 8, !tbaa !52
  call void @llvm.lifetime.start.p0(i64 8, ptr %3) #18
  %5 = load ptr, ptr %2, align 8, !tbaa !52
  %6 = getelementptr inbounds nuw %struct._CvContourScanner, ptr %5, i32 0, i32 15
  %7 = load ptr, ptr %6, align 8, !tbaa !83
  store ptr %7, ptr %3, align 8, !tbaa !99
  %8 = load ptr, ptr %3, align 8, !tbaa !99
  %9 = icmp ne ptr %8, null
  br i1 %9, label %10, label %62

10:                                               ; preds = %1
  %11 = load ptr, ptr %2, align 8, !tbaa !52
  %12 = getelementptr inbounds nuw %struct._CvContourScanner, ptr %11, i32 0, i32 22
  %13 = load i32, ptr %12, align 4, !tbaa !84
  %14 = icmp ne i32 %13, 0
  br i1 %14, label %15, label %43

15:                                               ; preds = %10
  call void @llvm.lifetime.start.p0(i64 16, ptr %4) #18
  %16 = load ptr, ptr %2, align 8, !tbaa !52
  %17 = getelementptr inbounds nuw %struct._CvContourScanner, ptr %16, i32 0, i32 1
  %18 = load ptr, ptr %17, align 8, !tbaa !54
  call void @cvSaveMemStoragePos(ptr noundef %18, ptr noundef %4)
  %19 = getelementptr inbounds nuw %struct.CvMemStoragePos, ptr %4, i32 0, i32 0
  %20 = load ptr, ptr %19, align 8, !tbaa !120
  %21 = load ptr, ptr %2, align 8, !tbaa !52
  %22 = getelementptr inbounds nuw %struct._CvContourScanner, ptr %21, i32 0, i32 6
  %23 = getelementptr inbounds nuw %struct.CvMemStoragePos, ptr %22, i32 0, i32 0
  %24 = load ptr, ptr %23, align 8, !tbaa !121
  %25 = icmp eq ptr %20, %24
  br i1 %25, label %26, label %40

26:                                               ; preds = %15
  %27 = getelementptr inbounds nuw %struct.CvMemStoragePos, ptr %4, i32 0, i32 1
  %28 = load i32, ptr %27, align 8, !tbaa !122
  %29 = load ptr, ptr %2, align 8, !tbaa !52
  %30 = getelementptr inbounds nuw %struct._CvContourScanner, ptr %29, i32 0, i32 6
  %31 = getelementptr inbounds nuw %struct.CvMemStoragePos, ptr %30, i32 0, i32 1
  %32 = load i32, ptr %31, align 8, !tbaa !123
  %33 = icmp eq i32 %28, %32
  br i1 %33, label %34, label %40

34:                                               ; preds = %26
  %35 = load ptr, ptr %2, align 8, !tbaa !52
  %36 = getelementptr inbounds nuw %struct._CvContourScanner, ptr %35, i32 0, i32 1
  %37 = load ptr, ptr %36, align 8, !tbaa !54
  %38 = load ptr, ptr %2, align 8, !tbaa !52
  %39 = getelementptr inbounds nuw %struct._CvContourScanner, ptr %38, i32 0, i32 5
  call void @cvRestoreMemStoragePos(ptr noundef %37, ptr noundef %39)
  br label %40

40:                                               ; preds = %34, %26, %15
  %41 = load ptr, ptr %2, align 8, !tbaa !52
  %42 = getelementptr inbounds nuw %struct._CvContourScanner, ptr %41, i32 0, i32 22
  store i32 0, ptr %42, align 4, !tbaa !84
  call void @llvm.lifetime.end.p0(i64 16, ptr %4) #18
  br label %43

43:                                               ; preds = %40, %10
  %44 = load ptr, ptr %3, align 8, !tbaa !99
  %45 = getelementptr inbounds nuw %struct._CvContourInfo, ptr %44, i32 0, i32 3
  %46 = load ptr, ptr %45, align 8, !tbaa !100
  %47 = icmp ne ptr %46, null
  br i1 %47, label %48, label %59

48:                                               ; preds = %43
  %49 = load ptr, ptr %3, align 8, !tbaa !99
  %50 = getelementptr inbounds nuw %struct._CvContourInfo, ptr %49, i32 0, i32 3
  %51 = load ptr, ptr %50, align 8, !tbaa !100
  %52 = load ptr, ptr %3, align 8, !tbaa !99
  %53 = getelementptr inbounds nuw %struct._CvContourInfo, ptr %52, i32 0, i32 2
  %54 = load ptr, ptr %53, align 8, !tbaa !113
  %55 = getelementptr inbounds nuw %struct._CvContourInfo, ptr %54, i32 0, i32 3
  %56 = load ptr, ptr %55, align 8, !tbaa !100
  %57 = load ptr, ptr %2, align 8, !tbaa !52
  %58 = getelementptr inbounds nuw %struct._CvContourScanner, ptr %57, i32 0, i32 18
  call void @cvInsertNodeIntoTree(ptr noundef %51, ptr noundef %56, ptr noundef %58)
  br label %59

59:                                               ; preds = %48, %43
  %60 = load ptr, ptr %2, align 8, !tbaa !52
  %61 = getelementptr inbounds nuw %struct._CvContourScanner, ptr %60, i32 0, i32 15
  store ptr null, ptr %61, align 8, !tbaa !83
  br label %62

62:                                               ; preds = %59, %1
  call void @llvm.lifetime.end.p0(i64 8, ptr %3) #18
  ret void
}

; Function Attrs: mustprogress nounwind uwtable
define linkonce_odr hidden void @_ZNSt15__new_allocatorIcED2Ev(ptr noundef nonnull align 1 dereferenceable(1) %0) unnamed_addr #3 comdat align 2 {
  %2 = alloca ptr, align 8
  store ptr %0, ptr %2, align 8, !tbaa !312
  ret void
}

; Function Attrs: mustprogress nounwind uwtable
define available_externally void @_ZNSt7__cxx1112basic_stringIcSt11char_traitsIcESaIcEED2Ev(ptr noundef nonnull align 8 dereferenceable(32) %0) unnamed_addr #3 align 2 personality ptr @__gxx_personality_v0 {
  %2 = alloca ptr, align 8
  store ptr %0, ptr %2, align 8, !tbaa !28
  %3 = load ptr, ptr %2, align 8
  invoke void @_ZNSt7__cxx1112basic_stringIcSt11char_traitsIcESaIcEE10_M_disposeEv(ptr noundef nonnull align 8 dereferenceable(32) %3)
          to label %4 unwind label %6

4:                                                ; preds = %1
  %5 = getelementptr inbounds nuw %"class.std::__cxx11::basic_string", ptr %3, i32 0, i32 0
  call void @_ZNSt15__new_allocatorIcED2Ev(ptr noundef nonnull align 8 dereferenceable(8) %5) #18
  ret void

6:                                                ; preds = %1
  %7 = landingpad { ptr, i32 }
          catch ptr null
  %8 = extractvalue { ptr, i32 } %7, 0
  call void @__clang_call_terminate(ptr %8) #20
  unreachable
}

; Function Attrs: mustprogress nounwind uwtable
define available_externally void @_ZNSaIcEC2Ev(ptr noundef nonnull align 1 dereferenceable(1) %0) unnamed_addr #3 align 2 {
  %2 = alloca ptr, align 8
  store ptr %0, ptr %2, align 8, !tbaa !26
  %3 = load ptr, ptr %2, align 8
  call void @_ZNSt15__new_allocatorIcEC2Ev(ptr noundef nonnull align 1 dereferenceable(1) %3) #18
  ret void
}

; Function Attrs: mustprogress uwtable
define ptr @cvEndFindContours(ptr noundef %0) #0 personality ptr @__gxx_personality_v0 {
  %2 = alloca ptr, align 8
  %3 = alloca ptr, align 8
  %4 = alloca ptr, align 8
  %5 = alloca %"class.std::__cxx11::basic_string", align 8
  %6 = alloca %"class.std::allocator", align 1
  %7 = alloca ptr, align 8
  %8 = alloca i32, align 4
  store ptr %0, ptr %2, align 8, !tbaa !150
  call void @llvm.lifetime.start.p0(i64 8, ptr %3) #18
  call void @llvm.lifetime.start.p0(i64 8, ptr %4) #18
  store ptr null, ptr %4, align 8, !tbaa !98
  %9 = load ptr, ptr %2, align 8, !tbaa !150
  %10 = icmp ne ptr %9, null
  br i1 %10, label %23, label %11

11:                                               ; preds = %1
  call void @llvm.lifetime.start.p0(i64 32, ptr %5) #18
  call void @llvm.lifetime.start.p0(i64 1, ptr %6) #18
  call void @_ZNSaIcEC2Ev(ptr noundef nonnull align 1 dereferenceable(1) %6) #18
  invoke void @_ZNSt7__cxx1112basic_stringIcSt11char_traitsIcESaIcEEC2EPKcRKS3_(ptr noundef nonnull align 8 dereferenceable(32) %5, ptr noundef @.str, ptr noundef nonnull align 1 dereferenceable(1) %6)
          to label %12 unwind label %14

12:                                               ; preds = %11
  invoke void @_ZN2cv5errorEiRKNSt7__cxx1112basic_stringIcSt11char_traitsIcESaIcEEEPKcS9_i(i32 noundef -27, ptr noundef nonnull align 8 dereferenceable(32) %5, ptr noundef @__func__.cvEndFindContours, ptr noundef @.str.1, i32 noundef 1317) #19
          to label %13 unwind label %18

13:                                               ; preds = %12
  unreachable

14:                                               ; preds = %11
  %15 = landingpad { ptr, i32 }
          cleanup
  %16 = extractvalue { ptr, i32 } %15, 0
  store ptr %16, ptr %7, align 8
  %17 = extractvalue { ptr, i32 } %15, 1
  store i32 %17, ptr %8, align 4
  br label %22

18:                                               ; preds = %12
  %19 = landingpad { ptr, i32 }
          cleanup
  %20 = extractvalue { ptr, i32 } %19, 0
  store ptr %20, ptr %7, align 8
  %21 = extractvalue { ptr, i32 } %19, 1
  store i32 %21, ptr %8, align 4
  call void @_ZNSt7__cxx1112basic_stringIcSt11char_traitsIcESaIcEED2Ev(ptr noundef nonnull align 8 dereferenceable(32) %5) #18
  br label %22

22:                                               ; preds = %18, %14
  call void @_ZNSt15__new_allocatorIcED2Ev(ptr noundef nonnull align 1 dereferenceable(1) %6) #18
  call void @llvm.lifetime.end.p0(i64 1, ptr %6) #18
  call void @llvm.lifetime.end.p0(i64 32, ptr %5) #18
  call void @llvm.lifetime.end.p0(i64 8, ptr %4) #18
  call void @llvm.lifetime.end.p0(i64 8, ptr %3) #18
  br label %58

23:                                               ; preds = %1
  %24 = load ptr, ptr %2, align 8, !tbaa !150
  %25 = load ptr, ptr %24, align 8, !tbaa !52
  store ptr %25, ptr %3, align 8, !tbaa !52
  %26 = load ptr, ptr %3, align 8, !tbaa !52
  %27 = icmp ne ptr %26, null
  br i1 %27, label %28, label %56

28:                                               ; preds = %23
  %29 = load ptr, ptr %3, align 8, !tbaa !52
  call void @_ZL20icvEndProcessContourP17_CvContourScanner(ptr noundef %29)
  %30 = load ptr, ptr %3, align 8, !tbaa !52
  %31 = getelementptr inbounds nuw %struct._CvContourScanner, ptr %30, i32 0, i32 0
  %32 = load ptr, ptr %31, align 8, !tbaa !64
  %33 = load ptr, ptr %3, align 8, !tbaa !52
  %34 = getelementptr inbounds nuw %struct._CvContourScanner, ptr %33, i32 0, i32 1
  %35 = load ptr, ptr %34, align 8, !tbaa !54
  %36 = icmp ne ptr %32, %35
  br i1 %36, label %37, label %40

37:                                               ; preds = %28
  %38 = load ptr, ptr %3, align 8, !tbaa !52
  %39 = getelementptr inbounds nuw %struct._CvContourScanner, ptr %38, i32 0, i32 0
  call void @cvReleaseMemStorage(ptr noundef %39)
  br label %40

40:                                               ; preds = %37, %28
  %41 = load ptr, ptr %3, align 8, !tbaa !52
  %42 = getelementptr inbounds nuw %struct._CvContourScanner, ptr %41, i32 0, i32 2
  %43 = load ptr, ptr %42, align 8, !tbaa !94
  %44 = icmp ne ptr %43, null
  br i1 %44, label %45, label %48

45:                                               ; preds = %40
  %46 = load ptr, ptr %3, align 8, !tbaa !52
  %47 = getelementptr inbounds nuw %struct._CvContourScanner, ptr %46, i32 0, i32 2
  call void @cvReleaseMemStorage(ptr noundef %47)
  br label %48

48:                                               ; preds = %45, %40
  %49 = load ptr, ptr %3, align 8, !tbaa !52
  %50 = getelementptr inbounds nuw %struct._CvContourScanner, ptr %49, i32 0, i32 18
  %51 = getelementptr inbounds nuw %struct.CvSeq, ptr %50, i32 0, i32 5
  %52 = load ptr, ptr %51, align 8, !tbaa !153
  store ptr %52, ptr %4, align 8, !tbaa !98
  %53 = load ptr, ptr %2, align 8, !tbaa !150
  %54 = load ptr, ptr %53, align 8, !tbaa !52
  call void @cvFree_(ptr noundef %54)
  %55 = load ptr, ptr %2, align 8, !tbaa !150
  store ptr null, ptr %55, align 8, !tbaa !52
  br label %56

56:                                               ; preds = %48, %23
  %57 = load ptr, ptr %4, align 8, !tbaa !98
  call void @llvm.lifetime.end.p0(i64 8, ptr %4) #18
  call void @llvm.lifetime.end.p0(i64 8, ptr %3) #18
  ret ptr %57

58:                                               ; preds = %22
  %59 = load ptr, ptr %7, align 8
  %60 = load i32, ptr %8, align 4
  %61 = insertvalue { ptr, i32 } poison, ptr %59, 0
  %62 = insertvalue { ptr, i32 } %61, i32 %60, 1
  resume { ptr, i32 } %62
}