; Function Attrs: mustprogress uwtable
define ptr @cvEndFindContours(ptr noundef %0) local_unnamed_addr #0 personality ptr @__gxx_personality_v0 {
  %2 = alloca %struct.CvMemStoragePos, align 8
  %3 = alloca %"class.std::__cxx11::basic_string", align 8
  %4 = alloca %"class.std::allocator", align 1
  %.not = icmp eq ptr %0, null
  br i1 %.not, label %5, label %15

5:                                                ; preds = %1
  call void @llvm.lifetime.start.p0(i64 32, ptr nonnull %3) #17
  call void @llvm.lifetime.start.p0(i64 1, ptr nonnull %4) #17
  call void @_ZNSt7__cxx1112basic_stringIcSt11char_traitsIcESaIcEEC2EPKcRKS3_(ptr noundef nonnull align 8 dereferenceable(32) %3, ptr noundef nonnull @.str, ptr noundef nonnull align 1 dereferenceable(1) %4)
  invoke void @_ZN2cv5errorEiRKNSt7__cxx1112basic_stringIcSt11char_traitsIcESaIcEEEPKcS9_i(i32 noundef -27, ptr noundef nonnull align 8 dereferenceable(32) %3, ptr noundef nonnull @__func__.cvEndFindContours, ptr noundef nonnull @.str.1, i32 noundef 1317) #18
          to label %6 unwind label %7

6:                                                ; preds = %5
  unreachable

7:                                                ; preds = %5
  %8 = landingpad { ptr, i32 }
          cleanup
  %9 = load ptr, ptr %3, align 8, !tbaa !3
  %10 = getelementptr inbounds nuw i8, ptr %3, i64 16
  %11 = icmp eq ptr %9, %10
  br i1 %11, label %_ZNKSt7__cxx1112basic_stringIcSt11char_traitsIcESaIcEE11_M_is_localEv.exit.thread.i.i, label %_ZNKSt7__cxx1112basic_stringIcSt11char_traitsIcESaIcEE11_M_is_localEv.exit.i.i

_ZNKSt7__cxx1112basic_stringIcSt11char_traitsIcESaIcEE11_M_is_localEv.exit.thread.i.i: ; preds = %7
  %12 = getelementptr inbounds nuw i8, ptr %3, i64 8
  %13 = load i64, ptr %12, align 8, !tbaa !11
  %14 = icmp ult i64 %13, 16
  call void @llvm.assume(i1 %14)
  br label %_ZNSt7__cxx1112basic_stringIcSt11char_traitsIcESaIcEED2Ev.exit

_ZNKSt7__cxx1112basic_stringIcSt11char_traitsIcESaIcEE11_M_is_localEv.exit.i.i: ; preds = %7
  call void @_ZdlPv(ptr noundef %9) #19
  br label %_ZNSt7__cxx1112basic_stringIcSt11char_traitsIcESaIcEED2Ev.exit

_ZNSt7__cxx1112basic_stringIcSt11char_traitsIcESaIcEED2Ev.exit: ; preds = %_ZNKSt7__cxx1112basic_stringIcSt11char_traitsIcESaIcEE11_M_is_localEv.exit.i.i, %_ZNKSt7__cxx1112basic_stringIcSt11char_traitsIcESaIcEE11_M_is_localEv.exit.thread.i.i
  call void @llvm.lifetime.end.p0(i64 1, ptr nonnull %4) #17
  call void @llvm.lifetime.end.p0(i64 32, ptr nonnull %3) #17
  resume { ptr, i32 } %8

15:                                               ; preds = %1
  %16 = load ptr, ptr %0, align 8, !tbaa !114
  %.not19 = icmp eq ptr %16, null
  br i1 %.not19, label %62, label %17

17:                                               ; preds = %15
  %18 = getelementptr inbounds nuw i8, ptr %16, i64 136
  %19 = load ptr, ptr %18, align 8, !tbaa !72
  %.not.i = icmp eq ptr %19, null
  br i1 %.not.i, label %_ZL20icvEndProcessContourP17_CvContourScanner.exit, label %20

20:                                               ; preds = %17
  %21 = getelementptr inbounds nuw i8, ptr %16, i64 380
  %22 = load i32, ptr %21, align 4, !tbaa !58
  %.not15.i = icmp eq i32 %22, 0
  br i1 %.not15.i, label %40, label %23

23:                                               ; preds = %20
  call void @llvm.lifetime.start.p0(i64 16, ptr nonnull %2) #17
  %24 = getelementptr inbounds nuw i8, ptr %16, i64 8
  %25 = load ptr, ptr %24, align 8, !tbaa !35
  call void @cvSaveMemStoragePos(ptr noundef %25, ptr noundef nonnull %2)
  %26 = load ptr, ptr %2, align 8, !tbaa !74
  %27 = getelementptr inbounds nuw i8, ptr %16, i64 64
  %28 = load ptr, ptr %27, align 8, !tbaa !75
  %29 = icmp eq ptr %26, %28
  br i1 %29, label %30, label %39

30:                                               ; preds = %23
  %31 = getelementptr inbounds nuw i8, ptr %2, i64 8
  %32 = load i32, ptr %31, align 8, !tbaa !76
  %33 = getelementptr inbounds nuw i8, ptr %16, i64 72
  %34 = load i32, ptr %33, align 8, !tbaa !77
  %35 = icmp eq i32 %32, %34
  br i1 %35, label %36, label %39

36:                                               ; preds = %30
  %37 = load ptr, ptr %24, align 8, !tbaa !35
  %38 = getelementptr inbounds nuw i8, ptr %16, i64 48
  call void @cvRestoreMemStoragePos(ptr noundef %37, ptr noundef nonnull %38)
  br label %39

39:                                               ; preds = %36, %30, %23
  store i32 0, ptr %21, align 4, !tbaa !58
  call void @llvm.lifetime.end.p0(i64 16, ptr nonnull %2) #17
  br label %40

40:                                               ; preds = %39, %20
  %41 = getelementptr inbounds nuw i8, ptr %19, i64 24
  %42 = load ptr, ptr %41, align 8, !tbaa !73
  %.not16.i = icmp eq ptr %42, null
  br i1 %.not16.i, label %49, label %43

43:                                               ; preds = %40
  %44 = getelementptr inbounds nuw i8, ptr %19, i64 16
  %45 = load ptr, ptr %44, align 8, !tbaa !78
  %46 = getelementptr inbounds nuw i8, ptr %45, i64 24
  %47 = load ptr, ptr %46, align 8, !tbaa !73
  %48 = getelementptr inbounds nuw i8, ptr %16, i64 272
  call void @cvInsertNodeIntoTree(ptr noundef nonnull %42, ptr noundef %47, ptr noundef nonnull %48)
  br label %49

49:                                               ; preds = %43, %40
  store ptr null, ptr %18, align 8, !tbaa !72
  br label %_ZL20icvEndProcessContourP17_CvContourScanner.exit

_ZL20icvEndProcessContourP17_CvContourScanner.exit: ; preds = %17, %49
  %50 = load ptr, ptr %16, align 8, !tbaa !45
  %51 = getelementptr inbounds nuw i8, ptr %16, i64 8
  %52 = load ptr, ptr %51, align 8, !tbaa !35
  %.not20 = icmp eq ptr %50, %52
  br i1 %.not20, label %54, label %53

53:                                               ; preds = %_ZL20icvEndProcessContourP17_CvContourScanner.exit
  call void @cvReleaseMemStorage(ptr noundef nonnull %16)
  br label %54

54:                                               ; preds = %53, %_ZL20icvEndProcessContourP17_CvContourScanner.exit
  %55 = getelementptr inbounds nuw i8, ptr %16, i64 16
  %56 = load ptr, ptr %55, align 8, !tbaa !68
  %.not21 = icmp eq ptr %56, null
  br i1 %.not21, label %58, label %57

57:                                               ; preds = %54
  call void @cvReleaseMemStorage(ptr noundef nonnull %55)
  br label %58

58:                                               ; preds = %57, %54
  %59 = getelementptr inbounds nuw i8, ptr %16, i64 304
  %60 = load ptr, ptr %59, align 8, !tbaa !116
  %61 = load ptr, ptr %0, align 8, !tbaa !114
  call void @cvFree_(ptr noundef %61)
  store ptr null, ptr %0, align 8, !tbaa !114
  br label %62

62:                                               ; preds = %58, %15
  %.015 = phi ptr [ %60, %58 ], [ null, %15 ]
  ret ptr %.015
}